target datalayout = "e-m:e-p270:32:32-p271:32:32-p272:64:64-i64:64-i128:128-f80:128-n8:16:32:64-S128"
target triple = "x86_64-pc-linux-gnu"

@.str.3 = private unnamed_addr constant [26 x i8] c"../openssl/test/exptest.c\00", align 1
@.str.29 = private unnamed_addr constant [2 x i8] c"r\00", align 1
@.str.31 = private unnamed_addr constant [42 x i8] c"%s failed: a ** 0 mod 1 = r (should be 0)\00", align 1
@.str.32 = private unnamed_addr constant [2 x i8] c"a\00", align 1

; Function Attrs: nounwind uwtable
define internal i32 @a_is_zero_mod_one(ptr noundef %0, ptr noundef %1, ptr noundef %2) #0 {
  %4 = alloca i32, align 4
  %5 = alloca ptr, align 8
  %6 = alloca ptr, align 8
  %7 = alloca ptr, align 8
  store ptr %0, ptr %5, align 8, !tbaa !18
  store ptr %1, ptr %6, align 8, !tbaa !4
  store ptr %2, ptr %7, align 8, !tbaa !4
  %8 = load ptr, ptr %6, align 8, !tbaa !4
  %9 = call i32 @BN_is_zero(ptr noundef %8)
  %10 = icmp ne i32 %9, 0
  br i1 %10, label %15, label %11

11:                                               ; preds = %3
  %12 = load ptr, ptr %5, align 8, !tbaa !18
  call void (ptr, i32, ptr, ...) @test_error(ptr noundef @.str.3, i32 noundef 35, ptr noundef @.str.31, ptr noundef %12)
  %13 = load ptr, ptr %7, align 8, !tbaa !4
  call void @test_output_bignum(ptr noundef @.str.32, ptr noundef %13)
  %14 = load ptr, ptr %6, align 8, !tbaa !4
  call void @test_output_bignum(ptr noundef @.str.29, ptr noundef %14)
  store i32 0, ptr %4, align 4
  br label %16

15:                                               ; preds = %3
  store i32 1, ptr %4, align 4
  br label %16

16:                                               ; preds = %15, %11
  %17 = load i32, ptr %4, align 4
  ret i32 %17
}