; Function Attrs: nounwind uwtable
define internal fastcc range(i32 0, 2) i32 @a_is_zero_mod_one(ptr noundef %0, ptr noundef %1, ptr noundef %2) unnamed_addr #0 {
  %4 = tail call i32 @BN_is_zero(ptr noundef %1) #3
  %.not = icmp eq i32 %4, 0
  br i1 %.not, label %5, label %6

5:                                                ; preds = %3
  tail call void (ptr, i32, ptr, ...) @test_error(ptr noundef nonnull @.str.3, i32 noundef 35, ptr noundef nonnull @.str.31, ptr noundef %0) #3
  tail call void @test_output_bignum(ptr noundef nonnull @.str.32, ptr noundef %2) #3
  tail call void @test_output_bignum(ptr noundef nonnull @.str.29, ptr noundef %1) #3
  br label %6

6:                                                ; preds = %3, %5
  %.0 = phi i32 [ 0, %5 ], [ 1, %3 ]
  ret i32 %.0
}